#include <math.h>
#include <stdio.h>
#include <stdlib.h>
#include <string.h>

main()
{
    int l,t,i,j,k,m;
    char s[100001];
    scanf("%d",&t);
    for(k=0;k<t;k++)
    {
        scanf("%s",s);
        l=strlen(s);
        for(i=0;i<l;i++)
        {
            for(j=0;j<i;j++)
                if(s[j]==s[i]) 
                break;
            for(m=i+1;m<l;m++)
                if(s[m]==s[i]) 
                break;
            if(j==i&&m==l) 
            {
                printf("%c\n",s[i]); 
                break;
            } 
       }
       if(i==l) printf("no\n");
}
getchar();
getchar();
}