; ModuleID = '37/423.c'
source_filename = "37/423.c"
target datalayout = "e-m:e-p270:32:32-p271:32:32-p272:64:64-i64:64-f80:128-n8:16:32:64-S128"
target triple = "x86_64-pc-linux-gnu"

@.str = private unnamed_addr constant [3 x i8] c"%d\00", align 1
@.str.1 = private unnamed_addr constant [3 x i8] c"%s\00", align 1
@.str.2 = private unnamed_addr constant [4 x i8] c"%c\0A\00", align 1
@.str.3 = private unnamed_addr constant [4 x i8] c"no\0A\00", align 1

; Function Attrs: noinline nounwind uwtable
define dso_local i32 @main() #0 {
  %1 = alloca i32, align 4
  %2 = alloca i32, align 4
  %3 = alloca i32, align 4
  %4 = alloca i32, align 4
  %5 = alloca i32, align 4
  %6 = alloca i32, align 4
  %7 = alloca i32, align 4
  %8 = alloca [100001 x i8], align 16
  store i32 0, i32* %1, align 4
  %9 = call i32 (i8*, ...) @__isoc99_scanf(i8* getelementptr inbounds ([3 x i8], [3 x i8]* @.str, i64 0, i64 0), i32* %3)
  store i32 0, i32* %6, align 4
  br label %10

10:                                               ; preds = %96, %0
  %11 = load i32, i32* %6, align 4
  %12 = load i32, i32* %3, align 4
  %13 = icmp slt i32 %11, %12
  br i1 %13, label %14, label %99

14:                                               ; preds = %10
  %15 = getelementptr inbounds [100001 x i8], [100001 x i8]* %8, i64 0, i64 0
  %16 = call i32 (i8*, ...) @__isoc99_scanf(i8* getelementptr inbounds ([3 x i8], [3 x i8]* @.str.1, i64 0, i64 0), i8* %15)
  %17 = getelementptr inbounds [100001 x i8], [100001 x i8]* %8, i64 0, i64 0
  %18 = call i64 @strlen(i8* %17) #3
  %19 = trunc i64 %18 to i32
  store i32 %19, i32* %2, align 4
  store i32 0, i32* %4, align 4
  br label %20

20:                                               ; preds = %86, %14
  %21 = load i32, i32* %4, align 4
  %22 = load i32, i32* %2, align 4
  %23 = icmp slt i32 %21, %22
  br i1 %23, label %24, label %89

24:                                               ; preds = %20
  store i32 0, i32* %5, align 4
  br label %25

25:                                               ; preds = %43, %24
  %26 = load i32, i32* %5, align 4
  %27 = load i32, i32* %4, align 4
  %28 = icmp slt i32 %26, %27
  br i1 %28, label %29, label %46

29:                                               ; preds = %25
  %30 = load i32, i32* %5, align 4
  %31 = sext i32 %30 to i64
  %32 = getelementptr inbounds [100001 x i8], [100001 x i8]* %8, i64 0, i64 %31
  %33 = load i8, i8* %32, align 1
  %34 = sext i8 %33 to i32
  %35 = load i32, i32* %4, align 4
  %36 = sext i32 %35 to i64
  %37 = getelementptr inbounds [100001 x i8], [100001 x i8]* %8, i64 0, i64 %36
  %38 = load i8, i8* %37, align 1
  %39 = sext i8 %38 to i32
  %40 = icmp eq i32 %34, %39
  br i1 %40, label %41, label %42

41:                                               ; preds = %29
  br label %46

42:                                               ; preds = %29
  br label %43

43:                                               ; preds = %42
  %44 = load i32, i32* %5, align 4
  %45 = add nsw i32 %44, 1
  store i32 %45, i32* %5, align 4
  br label %25

46:                                               ; preds = %41, %25
  %47 = load i32, i32* %4, align 4
  %48 = add nsw i32 %47, 1
  store i32 %48, i32* %7, align 4
  br label %49

49:                                               ; preds = %67, %46
  %50 = load i32, i32* %7, align 4
  %51 = load i32, i32* %2, align 4
  %52 = icmp slt i32 %50, %51
  br i1 %52, label %53, label %70

53:                                               ; preds = %49
  %54 = load i32, i32* %7, align 4
  %55 = sext i32 %54 to i64
  %56 = getelementptr inbounds [100001 x i8], [100001 x i8]* %8, i64 0, i64 %55
  %57 = load i8, i8* %56, align 1
  %58 = sext i8 %57 to i32
  %59 = load i32, i32* %4, align 4
  %60 = sext i32 %59 to i64
  %61 = getelementptr inbounds [100001 x i8], [100001 x i8]* %8, i64 0, i64 %60
  %62 = load i8, i8* %61, align 1
  %63 = sext i8 %62 to i32
  %64 = icmp eq i32 %58, %63
  br i1 %64, label %65, label %66

65:                                               ; preds = %53
  br label %70

66:                                               ; preds = %53
  br label %67

67:                                               ; preds = %66
  %68 = load i32, i32* %7, align 4
  %69 = add nsw i32 %68, 1
  store i32 %69, i32* %7, align 4
  br label %49

70:                                               ; preds = %65, %49
  %71 = load i32, i32* %5, align 4
  %72 = load i32, i32* %4, align 4
  %73 = icmp eq i32 %71, %72
  br i1 %73, label %74, label %85

74:                                               ; preds = %70
  %75 = load i32, i32* %7, align 4
  %76 = load i32, i32* %2, align 4
  %77 = icmp eq i32 %75, %76
  br i1 %77, label %78, label %85

78:                                               ; preds = %74
  %79 = load i32, i32* %4, align 4
  %80 = sext i32 %79 to i64
  %81 = getelementptr inbounds [100001 x i8], [100001 x i8]* %8, i64 0, i64 %80
  %82 = load i8, i8* %81, align 1
  %83 = sext i8 %82 to i32
  %84 = call i32 (i8*, ...) @printf(i8* getelementptr inbounds ([4 x i8], [4 x i8]* @.str.2, i64 0, i64 0), i32 %83)
  br label %89

85:                                               ; preds = %74, %70
  br label %86

86:                                               ; preds = %85
  %87 = load i32, i32* %4, align 4
  %88 = add nsw i32 %87, 1
  store i32 %88, i32* %4, align 4
  br label %20

89:                                               ; preds = %78, %20
  %90 = load i32, i32* %4, align 4
  %91 = load i32, i32* %2, align 4
  %92 = icmp eq i32 %90, %91
  br i1 %92, label %93, label %95

93:                                               ; preds = %89
  %94 = call i32 (i8*, ...) @printf(i8* getelementptr inbounds ([4 x i8], [4 x i8]* @.str.3, i64 0, i64 0))
  br label %95

95:                                               ; preds = %93, %89
  br label %96

96:                                               ; preds = %95
  %97 = load i32, i32* %6, align 4
  %98 = add nsw i32 %97, 1
  store i32 %98, i32* %6, align 4
  br label %10

99:                                               ; preds = %10
  %100 = call i32 @getchar()
  %101 = call i32 @getchar()
  %102 = load i32, i32* %1, align 4
  ret i32 %102
}

declare dso_local i32 @__isoc99_scanf(i8*, ...) #1

; Function Attrs: nounwind readonly
declare dso_local i64 @strlen(i8*) #2

declare dso_local i32 @printf(i8*, ...) #1

declare dso_local i32 @getchar() #1


!llvm.module.flags = !{!0}
!llvm.ident = !{!1}

!0 = !{i32 1, !"wchar_size", i32 4}
!1 = !{!"clang version 10.0.0-4ubuntu1 "}
