; ModuleID = 'source-C-CXX/36/423.c'
source_filename = "source-C-CXX/36/423.c"
target datalayout = "e-m:e-p270:32:32-p271:32:32-p272:64:64-i64:64-f80:128-n8:16:32:64-S128"
target triple = "x86_64-pc-linux-gnu"

%struct._IO_FILE = type { i32, i8*, i8*, i8*, i8*, i8*, i8*, i8*, i8*, i8*, i8*, i8*, %struct._IO_marker*, %struct._IO_FILE*, i32, i32, i64, i16, i8, [1 x i8], i8*, i64, %struct._IO_codecvt*, %struct._IO_wide_data*, %struct._IO_FILE*, i8*, i64, i32, [20 x i8] }
%struct._IO_marker = type opaque
%struct._IO_codecvt = type opaque
%struct._IO_wide_data = type opaque

@.str = private unnamed_addr constant [3 x i8] c"%d\00", align 1
@.str.1 = private unnamed_addr constant [3 x i8] c"%s\00", align 1
@.str.2 = private unnamed_addr constant [4 x i8] c"%c\0A\00", align 1
@stdin = external local_unnamed_addr global %struct._IO_FILE*, align 8
@str = private unnamed_addr constant [3 x i8] c"no\00", align 1

; Function Attrs: nofree nounwind sspstrong uwtable
define dso_local i32 @main() local_unnamed_addr #0 {
  %1 = alloca i32, align 4
  %2 = alloca [100001 x i8], align 16
  %3 = bitcast i32* %1 to i8*
  call void @llvm.lifetime.start.p0i8(i64 4, i8* nonnull %3) #6
  %4 = getelementptr inbounds [100001 x i8], [100001 x i8]* %2, i64 0, i64 0
  call void @llvm.lifetime.start.p0i8(i64 100001, i8* nonnull %4) #6
  %5 = call i32 (i8*, ...) @__isoc99_scanf(i8* getelementptr inbounds ([3 x i8], [3 x i8]* @.str, i64 0, i64 0), i32* nonnull %1)
  %6 = load i32, i32* %1, align 4, !tbaa !5
  %7 = icmp sgt i32 %6, 0
  br i1 %7, label %8, label %74

8:                                                ; preds = %0, %70
  %9 = phi i32 [ %71, %70 ], [ 0, %0 ]
  %10 = call i32 (i8*, ...) @__isoc99_scanf(i8* getelementptr inbounds ([3 x i8], [3 x i8]* @.str.1, i64 0, i64 0), i8* nonnull %4)
  %11 = call i64 @strlen(i8* noundef nonnull %4) #7
  %12 = trunc i64 %11 to i32
  %13 = call i32 @llvm.smax.i32(i32 %12, i32 0)
  %14 = zext i32 %13 to i64
  br label %15

15:                                               ; preds = %51, %8
  %16 = phi i64 [ %34, %51 ], [ 0, %8 ]
  %17 = phi i64 [ %57, %51 ], [ 1, %8 ]
  %18 = icmp eq i64 %16, %14
  br i1 %18, label %65, label %19

19:                                               ; preds = %15
  %20 = icmp eq i64 %16, 0
  br i1 %20, label %32, label %21

21:                                               ; preds = %19
  %22 = getelementptr inbounds [100001 x i8], [100001 x i8]* %2, i64 0, i64 %16
  %23 = load i8, i8* %22, align 1, !tbaa !9
  br label %24

24:                                               ; preds = %21, %29
  %25 = phi i64 [ 0, %21 ], [ %30, %29 ]
  %26 = getelementptr inbounds [100001 x i8], [100001 x i8]* %2, i64 0, i64 %25
  %27 = load i8, i8* %26, align 1, !tbaa !9
  %28 = icmp eq i8 %27, %23
  br i1 %28, label %32, label %29

29:                                               ; preds = %24
  %30 = add nuw nsw i64 %25, 1
  %31 = icmp eq i64 %30, %16
  br i1 %31, label %32, label %24, !llvm.loop !10

32:                                               ; preds = %29, %24, %19
  %33 = phi i64 [ 0, %19 ], [ %25, %24 ], [ %16, %29 ]
  %34 = add nuw nsw i64 %16, 1
  %35 = trunc i64 %34 to i32
  %36 = icmp slt i32 %35, %12
  br i1 %36, label %37, label %51

37:                                               ; preds = %32
  %38 = getelementptr inbounds [100001 x i8], [100001 x i8]* %2, i64 0, i64 %16
  %39 = load i8, i8* %38, align 1, !tbaa !9
  br label %40

40:                                               ; preds = %37, %45
  %41 = phi i64 [ %17, %37 ], [ %46, %45 ]
  %42 = getelementptr inbounds [100001 x i8], [100001 x i8]* %2, i64 0, i64 %41
  %43 = load i8, i8* %42, align 1, !tbaa !9
  %44 = icmp eq i8 %43, %39
  br i1 %44, label %49, label %45

45:                                               ; preds = %40
  %46 = add nuw nsw i64 %41, 1
  %47 = trunc i64 %46 to i32
  %48 = icmp eq i32 %47, %12
  br i1 %48, label %51, label %40, !llvm.loop !12

49:                                               ; preds = %40
  %50 = trunc i64 %41 to i32
  br label %51

51:                                               ; preds = %45, %49, %32
  %52 = phi i32 [ %35, %32 ], [ %50, %49 ], [ %12, %45 ]
  %53 = and i64 %33, 4294967295
  %54 = icmp eq i64 %53, %16
  %55 = icmp eq i32 %52, %12
  %56 = select i1 %54, i1 %55, i1 false
  %57 = add nuw nsw i64 %17, 1
  br i1 %56, label %58, label %15, !llvm.loop !13

58:                                               ; preds = %51
  %59 = trunc i64 %16 to i32
  %60 = and i64 %16, 4294967295
  %61 = getelementptr inbounds [100001 x i8], [100001 x i8]* %2, i64 0, i64 %60
  %62 = load i8, i8* %61, align 1, !tbaa !9
  %63 = sext i8 %62 to i32
  %64 = call i32 (i8*, ...) @printf(i8* nonnull dereferenceable(1) getelementptr inbounds ([4 x i8], [4 x i8]* @.str.2, i64 0, i64 0), i32 %63)
  br label %65

65:                                               ; preds = %15, %58
  %66 = phi i32 [ %59, %58 ], [ %13, %15 ]
  %67 = icmp eq i32 %66, %12
  br i1 %67, label %68, label %70

68:                                               ; preds = %65
  %69 = call i32 @puts(i8* nonnull dereferenceable(1) getelementptr inbounds ([3 x i8], [3 x i8]* @str, i64 0, i64 0))
  br label %70

70:                                               ; preds = %65, %68
  %71 = add nuw nsw i32 %9, 1
  %72 = load i32, i32* %1, align 4, !tbaa !5
  %73 = icmp slt i32 %71, %72
  br i1 %73, label %8, label %74, !llvm.loop !14

74:                                               ; preds = %70, %0
  %75 = load %struct._IO_FILE*, %struct._IO_FILE** @stdin, align 8, !tbaa !15
  %76 = call i32 @getc(%struct._IO_FILE* %75) #6
  %77 = load %struct._IO_FILE*, %struct._IO_FILE** @stdin, align 8, !tbaa !15
  %78 = call i32 @getc(%struct._IO_FILE* %77) #6
  call void @llvm.lifetime.end.p0i8(i64 100001, i8* nonnull %4) #6
  call void @llvm.lifetime.end.p0i8(i64 4, i8* nonnull %3) #6
  ret i32 0
}

; Function Attrs: argmemonly mustprogress nofree nosync nounwind willreturn
declare void @llvm.lifetime.start.p0i8(i64 immarg, i8* nocapture) #1

; Function Attrs: nofree nounwind
declare noundef i32 @__isoc99_scanf(i8* nocapture noundef readonly, ...) local_unnamed_addr #2

; Function Attrs: argmemonly mustprogress nofree nounwind readonly willreturn
declare i64 @strlen(i8* nocapture) local_unnamed_addr #3

; Function Attrs: nofree nounwind
declare noundef i32 @printf(i8* nocapture noundef readonly, ...) local_unnamed_addr #2

; Function Attrs: argmemonly mustprogress nofree nosync nounwind willreturn
declare void @llvm.lifetime.end.p0i8(i64 immarg, i8* nocapture) #1

; Function Attrs: nofree nounwind
declare noundef i32 @getc(%struct._IO_FILE* nocapture noundef) local_unnamed_addr #2

; Function Attrs: nofree nounwind
declare noundef i32 @puts(i8* nocapture noundef readonly) local_unnamed_addr #4

; Function Attrs: nofree nosync nounwind readnone speculatable willreturn
declare i32 @llvm.smax.i32(i32, i32) #5


!llvm.module.flags = !{!0, !1, !2, !3}
!llvm.ident = !{!4}

!0 = !{i32 1, !"wchar_size", i32 4}
!1 = !{i32 7, !"PIC Level", i32 2}
!2 = !{i32 7, !"PIE Level", i32 2}
!3 = !{i32 7, !"uwtable", i32 1}
!4 = !{!"clang version 13.0.0"}
!5 = !{!6, !6, i64 0}
!6 = !{!"int", !7, i64 0}
!7 = !{!"omnipotent char", !8, i64 0}
!8 = !{!"Simple C/C++ TBAA"}
!9 = !{!7, !7, i64 0}
!10 = distinct !{!10, !11}
!11 = !{!"llvm.loop.mustprogress"}
!12 = distinct !{!12, !11}
!13 = distinct !{!13, !11}
!14 = distinct !{!14, !11}
!15 = !{!16, !16, i64 0}
!16 = !{!"any pointer", !7, i64 0}
